; Function Attrs: mustprogress uwtable
define noundef zeroext i1 @_ZNK8QuantLib20YoYInflationCapFloor9isExpiredEv(ptr nocapture noundef nonnull readonly align 8 dereferenceable(184) %this) unnamed_addr #8 align 2 personality ptr @__gxx_personality_v0 {
entry:
  %ref.tmp = alloca %"class.QuantLib::Date", align 8
  %yoyLeg_ = getelementptr inbounds nuw i8, ptr %this, i64 112
  %_M_finish.i = getelementptr inbounds nuw i8, ptr %this, i64 120
  %0 = load ptr, ptr %_M_finish.i, align 8, !tbaa !65
  %1 = load ptr, ptr %yoyLeg_, align 8, !tbaa !64
  %sub.ptr.lhs.cast.i = ptrtoint ptr %0 to i64
  %sub.ptr.rhs.cast.i = ptrtoint ptr %1 to i64
  %sub.ptr.sub.i = sub i64 %sub.ptr.lhs.cast.i, %sub.ptr.rhs.cast.i
  %sub.ptr.div.i = ashr exact i64 %sub.ptr.sub.i, 4
  br label %for.cond

for.cond:                                         ; preds = %_ZNK5boost10shared_ptrIN8QuantLib8CashFlowEEptEv.exit, %entry
  %i.0 = phi i64 [ %sub.ptr.div.i, %entry ], [ %sub, %_ZNK5boost10shared_ptrIN8QuantLib8CashFlowEEptEv.exit ]
  %cmp.not = icmp eq i64 %i.0, 0
  br i1 %cmp.not, label %cleanup, label %for.body

for.body:                                         ; preds = %for.cond
  %sub = add i64 %i.0, -1
  %2 = load ptr, ptr %yoyLeg_, align 8, !tbaa !64
  %add.ptr.i = getelementptr inbounds nuw %"class.boost::shared_ptr.36", ptr %2, i64 %sub
  %3 = load ptr, ptr %add.ptr.i, align 8, !tbaa !71
  %cmp.not.i = icmp eq ptr %3, null
  br i1 %cmp.not.i, label %cond.false.i, label %_ZNK5boost10shared_ptrIN8QuantLib8CashFlowEEptEv.exit, !prof !91

cond.false.i:                                     ; preds = %for.body
  call void @_ZN5boost16assertion_failedEPKcS1_S1_l(ptr noundef nonnull @.str.28, ptr noundef nonnull @__PRETTY_FUNCTION__._ZNK5boost10shared_ptrIN8QuantLib8CashFlowEEptEv, ptr noundef nonnull @.str.29, i64 noundef 784)
  %.pre.i = load ptr, ptr %add.ptr.i, align 8, !tbaa !71
  br label %_ZNK5boost10shared_ptrIN8QuantLib8CashFlowEEptEv.exit

_ZNK5boost10shared_ptrIN8QuantLib8CashFlowEEptEv.exit: ; preds = %for.body, %cond.false.i
  %4 = phi ptr [ %3, %for.body ], [ %.pre.i, %cond.false.i ]
  call void @llvm.lifetime.start.p0(i64 8, ptr nonnull %ref.tmp) #27
  call void @_ZN8QuantLib4DateC1Ev(ptr noundef nonnull align 8 dereferenceable(8) %ref.tmp)
  %vtable = load ptr, ptr %4, align 8, !tbaa !33
  %vfn = getelementptr inbounds i8, ptr %vtable, i64 24
  %5 = load ptr, ptr %vfn, align 8
  %call6 = call noundef zeroext i1 %5(ptr noundef nonnull align 8 dereferenceable(20) %4, ptr noundef nonnull align 8 dereferenceable(8) %ref.tmp, i16 0)
  call void @llvm.lifetime.end.p0(i64 8, ptr nonnull %ref.tmp) #27
  br i1 %call6, label %for.cond, label %cleanup, !llvm.loop !96

cleanup:                                          ; preds = %_ZNK5boost10shared_ptrIN8QuantLib8CashFlowEEptEv.exit, %for.cond
  ret i1 %cmp.not
}